target datalayout = "e-m:e-p270:32:32-p271:32:32-p272:64:64-i64:64-i128:128-f80:128-n8:16:32:64-S128"
target triple = "x86_64-pc-linux-gnu"

%struct.PlannedStmt = type { i32, i32, i64, i8, i8, i8, i8, i8, i8, i32, ptr, ptr, ptr, ptr, ptr, ptr, ptr, ptr, ptr, ptr, ptr, ptr, ptr, ptr, i32, i32 }
%struct.QueryDesc = type { i32, ptr, ptr, ptr, ptr, ptr, ptr, ptr, i32, ptr, ptr, ptr, i8, ptr }

; Function Attrs: nounwind uwtable
define dso_local ptr @CreateQueryDesc(ptr noundef %0, ptr noundef %1, ptr noundef %2, ptr noundef %3, ptr noundef %4, ptr noundef %5, ptr noundef %6, i32 noundef %7) #0 {
  %9 = alloca ptr, align 8
  %10 = alloca ptr, align 8
  %11 = alloca ptr, align 8
  %12 = alloca ptr, align 8
  %13 = alloca ptr, align 8
  %14 = alloca ptr, align 8
  %15 = alloca ptr, align 8
  %16 = alloca i32, align 4
  %17 = alloca ptr, align 8
  store ptr %0, ptr %9, align 8
  store ptr %1, ptr %10, align 8
  store ptr %2, ptr %11, align 8
  store ptr %3, ptr %12, align 8
  store ptr %4, ptr %13, align 8
  store ptr %5, ptr %14, align 8
  store ptr %6, ptr %15, align 8
  store i32 %7, ptr %16, align 4
  call void @llvm.lifetime.start.p0(i64 8, ptr %17) #10
  %18 = call ptr @palloc(i64 noundef 112)
  store ptr %18, ptr %17, align 8
  %19 = load ptr, ptr %9, align 8
  %20 = getelementptr inbounds nuw %struct.PlannedStmt, ptr %19, i32 0, i32 1
  %21 = load i32, ptr %20, align 4
  %22 = load ptr, ptr %17, align 8
  %23 = getelementptr inbounds nuw %struct.QueryDesc, ptr %22, i32 0, i32 0
  store i32 %21, ptr %23, align 8
  %24 = load ptr, ptr %9, align 8
  %25 = load ptr, ptr %17, align 8
  %26 = getelementptr inbounds nuw %struct.QueryDesc, ptr %25, i32 0, i32 1
  store ptr %24, ptr %26, align 8
  %27 = load ptr, ptr %10, align 8
  %28 = load ptr, ptr %17, align 8
  %29 = getelementptr inbounds nuw %struct.QueryDesc, ptr %28, i32 0, i32 2
  store ptr %27, ptr %29, align 8
  %30 = load ptr, ptr %11, align 8
  %31 = call ptr @RegisterSnapshot(ptr noundef %30)
  %32 = load ptr, ptr %17, align 8
  %33 = getelementptr inbounds nuw %struct.QueryDesc, ptr %32, i32 0, i32 3
  store ptr %31, ptr %33, align 8
  %34 = load ptr, ptr %12, align 8
  %35 = call ptr @RegisterSnapshot(ptr noundef %34)
  %36 = load ptr, ptr %17, align 8
  %37 = getelementptr inbounds nuw %struct.QueryDesc, ptr %36, i32 0, i32 4
  store ptr %35, ptr %37, align 8
  %38 = load ptr, ptr %13, align 8
  %39 = load ptr, ptr %17, align 8
  %40 = getelementptr inbounds nuw %struct.QueryDesc, ptr %39, i32 0, i32 5
  store ptr %38, ptr %40, align 8
  %41 = load ptr, ptr %14, align 8
  %42 = load ptr, ptr %17, align 8
  %43 = getelementptr inbounds nuw %struct.QueryDesc, ptr %42, i32 0, i32 6
  store ptr %41, ptr %43, align 8
  %44 = load ptr, ptr %15, align 8
  %45 = load ptr, ptr %17, align 8
  %46 = getelementptr inbounds nuw %struct.QueryDesc, ptr %45, i32 0, i32 7
  store ptr %44, ptr %46, align 8
  %47 = load i32, ptr %16, align 4
  %48 = load ptr, ptr %17, align 8
  %49 = getelementptr inbounds nuw %struct.QueryDesc, ptr %48, i32 0, i32 8
  store i32 %47, ptr %49, align 8
  %50 = load ptr, ptr %17, align 8
  %51 = getelementptr inbounds nuw %struct.QueryDesc, ptr %50, i32 0, i32 9
  store ptr null, ptr %51, align 8
  %52 = load ptr, ptr %17, align 8
  %53 = getelementptr inbounds nuw %struct.QueryDesc, ptr %52, i32 0, i32 10
  store ptr null, ptr %53, align 8
  %54 = load ptr, ptr %17, align 8
  %55 = getelementptr inbounds nuw %struct.QueryDesc, ptr %54, i32 0, i32 11
  store ptr null, ptr %55, align 8
  %56 = load ptr, ptr %17, align 8
  %57 = getelementptr inbounds nuw %struct.QueryDesc, ptr %56, i32 0, i32 13
  store ptr null, ptr %57, align 8
  %58 = load ptr, ptr %17, align 8
  %59 = getelementptr inbounds nuw %struct.QueryDesc, ptr %58, i32 0, i32 12
  store i8 0, ptr %59, align 8
  %60 = load ptr, ptr %17, align 8
  call void @llvm.lifetime.end.p0(i64 8, ptr %17) #10
  ret ptr %60
}