; Function Attrs: nounwind uwtable
define dso_local noundef ptr @CreateQueryDesc(ptr noundef %0, ptr noundef %1, ptr noundef %2, ptr noundef %3, ptr noundef %4, ptr noundef %5, ptr noundef %6, i32 noundef %7) local_unnamed_addr #0 {
  %9 = tail call ptr @palloc(i64 noundef 112) #11
  %10 = getelementptr inbounds nuw i8, ptr %0, i64 4
  %11 = load i32, ptr %10, align 4
  store i32 %11, ptr %9, align 8
  %12 = getelementptr inbounds nuw i8, ptr %9, i64 8
  store ptr %0, ptr %12, align 8
  %13 = getelementptr inbounds nuw i8, ptr %9, i64 16
  store ptr %1, ptr %13, align 8
  %14 = tail call ptr @RegisterSnapshot(ptr noundef %2) #11
  %15 = getelementptr inbounds nuw i8, ptr %9, i64 24
  store ptr %14, ptr %15, align 8
  %16 = tail call ptr @RegisterSnapshot(ptr noundef %3) #11
  %17 = getelementptr inbounds nuw i8, ptr %9, i64 32
  store ptr %16, ptr %17, align 8
  %18 = getelementptr inbounds nuw i8, ptr %9, i64 40
  store ptr %4, ptr %18, align 8
  %19 = getelementptr inbounds nuw i8, ptr %9, i64 48
  store ptr %5, ptr %19, align 8
  %20 = getelementptr inbounds nuw i8, ptr %9, i64 56
  store ptr %6, ptr %20, align 8
  %21 = getelementptr inbounds nuw i8, ptr %9, i64 64
  store i32 %7, ptr %21, align 8
  %22 = getelementptr inbounds nuw i8, ptr %9, i64 72
  %23 = getelementptr inbounds nuw i8, ptr %9, i64 104
  store ptr null, ptr %23, align 8
  tail call void @llvm.memset.p0.i64(ptr noundef nonnull align 8 dereferenceable(25) %22, i8 0, i64 25, i1 false)
  ret ptr %9
}